target datalayout = "e-m:e-p270:32:32-p271:32:32-p272:64:64-i64:64-i128:128-f80:128-n8:16:32:64-S128"
target triple = "x86_64-pc-linux-gnu"

%struct.archive_read = type { %struct.archive, ptr, i32, i64, i64, %struct.archive_read_client, [16 x %struct.archive_read_filter_bidder], ptr, i32, i64, i32, i32, [16 x %struct.archive_format_descriptor], ptr, ptr, ptr, %struct.anon }
%struct.archive = type { i32, i32, ptr, i32, ptr, i32, i32, ptr, %struct.archive_string, ptr, i32, i32, ptr, ptr, i64, i64, i64, i8, i64 }
%struct.archive_string = type { ptr, i64, i64 }
%struct.archive_read_client = type { ptr, ptr, ptr, ptr, ptr, ptr, i32, i32, i64, ptr }
%struct.archive_read_filter_bidder = type { ptr, ptr, ptr }
%struct.archive_format_descriptor = type { ptr, ptr, ptr, ptr, ptr, ptr, ptr, ptr, ptr, ptr, ptr }
%struct.anon = type { ptr, ptr, i32, ptr, ptr }

; Function Attrs: nounwind uwtable
define dso_local i32 @archive_read_format_capabilities(ptr noundef %0) #0 {
  %2 = alloca i32, align 4
  %3 = alloca ptr, align 8
  %4 = alloca ptr, align 8
  %5 = alloca i32, align 4
  store ptr %0, ptr %3, align 8, !tbaa !31
  call void @llvm.lifetime.start.p0(i64 8, ptr %4) #11
  %6 = load ptr, ptr %3, align 8, !tbaa !31
  store ptr %6, ptr %4, align 8, !tbaa !4
  %7 = load ptr, ptr %4, align 8, !tbaa !4
  %8 = icmp ne ptr %7, null
  br i1 %8, label %9, label %29

9:                                                ; preds = %1
  %10 = load ptr, ptr %4, align 8, !tbaa !4
  %11 = getelementptr inbounds nuw %struct.archive_read, ptr %10, i32 0, i32 13
  %12 = load ptr, ptr %11, align 8, !tbaa !63
  %13 = icmp ne ptr %12, null
  br i1 %13, label %14, label %29

14:                                               ; preds = %9
  %15 = load ptr, ptr %4, align 8, !tbaa !4
  %16 = getelementptr inbounds nuw %struct.archive_read, ptr %15, i32 0, i32 13
  %17 = load ptr, ptr %16, align 8, !tbaa !63
  %18 = getelementptr inbounds nuw %struct.archive_format_descriptor, ptr %17, i32 0, i32 9
  %19 = load ptr, ptr %18, align 8, !tbaa !94
  %20 = icmp ne ptr %19, null
  br i1 %20, label %21, label %29

21:                                               ; preds = %14
  %22 = load ptr, ptr %4, align 8, !tbaa !4
  %23 = getelementptr inbounds nuw %struct.archive_read, ptr %22, i32 0, i32 13
  %24 = load ptr, ptr %23, align 8, !tbaa !63
  %25 = getelementptr inbounds nuw %struct.archive_format_descriptor, ptr %24, i32 0, i32 9
  %26 = load ptr, ptr %25, align 8, !tbaa !94
  %27 = load ptr, ptr %4, align 8, !tbaa !4
  %28 = call i32 %26(ptr noundef %27)
  store i32 %28, ptr %2, align 4
  store i32 1, ptr %5, align 4
  br label %30

29:                                               ; preds = %14, %9, %1
  store i32 0, ptr %2, align 4
  store i32 1, ptr %5, align 4
  br label %30

30:                                               ; preds = %29, %21
  call void @llvm.lifetime.end.p0(i64 8, ptr %4) #11
  %31 = load i32, ptr %2, align 4
  ret i32 %31
}

; Function Attrs: nounwind uwtable
define dso_local i32 @archive_read_has_encrypted_entries(ptr noundef %0) #0 {
  %2 = alloca i32, align 4
  %3 = alloca ptr, align 8
  %4 = alloca ptr, align 8
  %5 = alloca i32, align 4
  %6 = alloca i32, align 4
  store ptr %0, ptr %3, align 8, !tbaa !31
  call void @llvm.lifetime.start.p0(i64 8, ptr %4) #11
  %7 = load ptr, ptr %3, align 8, !tbaa !31
  store ptr %7, ptr %4, align 8, !tbaa !4
  call void @llvm.lifetime.start.p0(i64 4, ptr %5) #11
  %8 = load ptr, ptr %3, align 8, !tbaa !31
  %9 = call i32 @archive_read_format_capabilities(ptr noundef %8)
  %10 = and i32 %9, 3
  store i32 %10, ptr %5, align 4, !tbaa !38
  %11 = load ptr, ptr %3, align 8, !tbaa !31
  %12 = icmp ne ptr %11, null
  br i1 %12, label %13, label %16

13:                                               ; preds = %1
  %14 = load i32, ptr %5, align 4, !tbaa !38
  %15 = icmp ne i32 %14, 0
  br i1 %15, label %17, label %16

16:                                               ; preds = %13, %1
  store i32 -2, ptr %2, align 4
  store i32 1, ptr %6, align 4
  br label %38

17:                                               ; preds = %13
  %18 = load ptr, ptr %4, align 8, !tbaa !4
  %19 = getelementptr inbounds nuw %struct.archive_read, ptr %18, i32 0, i32 13
  %20 = load ptr, ptr %19, align 8, !tbaa !63
  %21 = icmp ne ptr %20, null
  br i1 %21, label %22, label %37

22:                                               ; preds = %17
  %23 = load ptr, ptr %4, align 8, !tbaa !4
  %24 = getelementptr inbounds nuw %struct.archive_read, ptr %23, i32 0, i32 13
  %25 = load ptr, ptr %24, align 8, !tbaa !63
  %26 = getelementptr inbounds nuw %struct.archive_format_descriptor, ptr %25, i32 0, i32 10
  %27 = load ptr, ptr %26, align 8, !tbaa !93
  %28 = icmp ne ptr %27, null
  br i1 %28, label %29, label %37

29:                                               ; preds = %22
  %30 = load ptr, ptr %4, align 8, !tbaa !4
  %31 = getelementptr inbounds nuw %struct.archive_read, ptr %30, i32 0, i32 13
  %32 = load ptr, ptr %31, align 8, !tbaa !63
  %33 = getelementptr inbounds nuw %struct.archive_format_descriptor, ptr %32, i32 0, i32 10
  %34 = load ptr, ptr %33, align 8, !tbaa !93
  %35 = load ptr, ptr %4, align 8, !tbaa !4
  %36 = call i32 %34(ptr noundef %35)
  store i32 %36, ptr %2, align 4
  store i32 1, ptr %6, align 4
  br label %38

37:                                               ; preds = %22, %17
  store i32 -1, ptr %2, align 4
  store i32 1, ptr %6, align 4
  br label %38

38:                                               ; preds = %37, %29, %16
  call void @llvm.lifetime.end.p0(i64 4, ptr %5) #11
  call void @llvm.lifetime.end.p0(i64 8, ptr %4) #11
  %39 = load i32, ptr %2, align 4
  ret i32 %39
}