; Function Attrs: nounwind uwtable
define dso_local i32 @archive_read_has_encrypted_entries(ptr noundef %0) local_unnamed_addr #0 {
  %.not.i = icmp eq ptr %0, null
  br i1 %.not.i, label %archive_read_format_capabilities.exit.thread, label %2

2:                                                ; preds = %1
  %3 = getelementptr inbounds nuw i8, ptr %0, i64 2072
  %4 = load ptr, ptr %3, align 8, !tbaa !73
  %.not9.i = icmp eq ptr %4, null
  br i1 %.not9.i, label %archive_read_format_capabilities.exit.thread, label %5

5:                                                ; preds = %2
  %6 = getelementptr inbounds nuw i8, ptr %4, i64 72
  %7 = load ptr, ptr %6, align 8, !tbaa !85
  %.not10.i = icmp eq ptr %7, null
  br i1 %.not10.i, label %archive_read_format_capabilities.exit.thread, label %archive_read_format_capabilities.exit

archive_read_format_capabilities.exit:            ; preds = %5
  %8 = tail call i32 %7(ptr noundef nonnull %0) #15
  %9 = and i32 %8, 3
  %.not15 = icmp eq i32 %9, 0
  br i1 %.not15, label %archive_read_format_capabilities.exit.thread, label %10

10:                                               ; preds = %archive_read_format_capabilities.exit
  %11 = load ptr, ptr %3, align 8, !tbaa !73
  %.not = icmp eq ptr %11, null
  br i1 %.not, label %archive_read_format_capabilities.exit.thread, label %12

12:                                               ; preds = %10
  %13 = getelementptr inbounds nuw i8, ptr %11, i64 80
  %14 = load ptr, ptr %13, align 8, !tbaa !86
  %.not12 = icmp eq ptr %14, null
  br i1 %.not12, label %archive_read_format_capabilities.exit.thread, label %15

15:                                               ; preds = %12
  %16 = tail call i32 %14(ptr noundef nonnull %0) #15
  br label %archive_read_format_capabilities.exit.thread

archive_read_format_capabilities.exit.thread:     ; preds = %2, %5, %1, %10, %12, %archive_read_format_capabilities.exit, %15
  %.0 = phi i32 [ %16, %15 ], [ -2, %archive_read_format_capabilities.exit ], [ -1, %12 ], [ -1, %10 ], [ -2, %1 ], [ -2, %5 ], [ -2, %2 ]
  ret i32 %.0
}